; Function Attrs: mustprogress nofree norecurse nosync nounwind willreturn memory(argmem: read) uwtable
define noundef i32 @_ZNK17ExportObjectModel8rowCountERK11QModelIndex(ptr nocapture noundef nonnull readonly align 8 dereferenceable(80) %0, ptr nocapture noundef nonnull readonly align 8 dereferenceable(24) %1) unnamed_addr #7 align 2 {
  %3 = load i32, ptr %1, align 8
  %4 = icmp sgt i32 %3, -1
  %5 = getelementptr inbounds i8, ptr %1, i64 4
  %6 = load i32, ptr %5, align 4
  %7 = icmp sgt i32 %6, -1
  %or.cond.i = select i1 %4, i1 %7, i1 false
  %8 = getelementptr inbounds i8, ptr %1, i64 16
  %9 = load ptr, ptr %8, align 8
  %10 = icmp ne ptr %9, null
  %or.cond = select i1 %or.cond.i, i1 %10, i1 false
  %11 = getelementptr inbounds i8, ptr %0, i64 32
  %12 = load i64, ptr %11, align 8
  %13 = trunc i64 %12 to i32
  %.0 = select i1 %or.cond, i32 0, i32 %13
  ret i32 %.0
}